target datalayout = "e-m:e-p270:32:32-p271:32:32-p272:64:64-i64:64-i128:128-f80:128-n8:16:32:64-S128"
target triple = "x86_64-pc-linux-gnu"

@ett_rtps_entity = internal global i32 0, align 4
@ett_rtps_generic_guid = internal global i32 0, align 4
@.str.1130 = private unnamed_addr constant [20 x i8] c"%08x %08x %08x %08x\00", align 1

; Function Attrs: null_pointer_is_valid sspstrong uwtable
define internal void @rtps_util_add_generic_guid_v2(ptr noundef %0, ptr noundef %1, i32 noundef %2, i32 noundef %3, i32 noundef %4, i32 noundef %5, i32 noundef %6, i32 noundef %7, i32 noundef %8, i32 noundef %9, ptr noundef %10) #0 {
  %12 = alloca ptr, align 8
  %13 = alloca ptr, align 8
  %14 = alloca i32, align 4
  %15 = alloca i32, align 4
  %16 = alloca i32, align 4
  %17 = alloca i32, align 4
  %18 = alloca i32, align 4
  %19 = alloca i32, align 4
  %20 = alloca i32, align 4
  %21 = alloca i32, align 4
  %22 = alloca ptr, align 8
  %23 = alloca i32, align 4
  %24 = alloca i32, align 4
  %25 = alloca i32, align 4
  %26 = alloca i32, align 4
  %27 = alloca ptr, align 8
  %28 = alloca ptr, align 8
  %29 = alloca ptr, align 8
  store ptr %0, ptr %12, align 8
  store ptr %1, ptr %13, align 8
  store i32 %2, ptr %14, align 4
  store i32 %3, ptr %15, align 4
  store i32 %4, ptr %16, align 4
  store i32 %5, ptr %17, align 4
  store i32 %6, ptr %18, align 4
  store i32 %7, ptr %19, align 4
  store i32 %8, ptr %20, align 4
  store i32 %9, ptr %21, align 4
  store ptr %10, ptr %22, align 8
  call void @llvm.lifetime.start.p0(i64 4, ptr %23) #14
  call void @llvm.lifetime.start.p0(i64 4, ptr %24) #14
  call void @llvm.lifetime.start.p0(i64 4, ptr %25) #14
  call void @llvm.lifetime.start.p0(i64 4, ptr %26) #14
  call void @llvm.lifetime.start.p0(i64 8, ptr %27) #14
  call void @llvm.lifetime.start.p0(i64 8, ptr %28) #14
  call void @llvm.lifetime.start.p0(i64 8, ptr %29) #14
  %30 = load ptr, ptr %13, align 8
  %31 = load i32, ptr %14, align 4
  %32 = call i32 @tvb_get_ntohl(ptr noundef %30, i32 noundef %31)
  store i32 %32, ptr %23, align 4
  %33 = load ptr, ptr %13, align 8
  %34 = load i32, ptr %14, align 4
  %35 = add i32 %34, 4
  %36 = call i32 @tvb_get_ntohl(ptr noundef %33, i32 noundef %35)
  store i32 %36, ptr %24, align 4
  %37 = load ptr, ptr %13, align 8
  %38 = load i32, ptr %14, align 4
  %39 = add i32 %38, 8
  %40 = call i32 @tvb_get_ntohl(ptr noundef %37, i32 noundef %39)
  store i32 %40, ptr %26, align 4
  %41 = load ptr, ptr %13, align 8
  %42 = load i32, ptr %14, align 4
  %43 = add i32 %42, 12
  %44 = call i32 @tvb_get_ntohl(ptr noundef %41, i32 noundef %43)
  store i32 %44, ptr %25, align 4
  %45 = load ptr, ptr %12, align 8
  %46 = load i32, ptr %15, align 4
  %47 = load ptr, ptr %13, align 8
  %48 = load i32, ptr %14, align 4
  %49 = load i32, ptr %23, align 4
  %50 = load i32, ptr %24, align 4
  %51 = load i32, ptr %26, align 4
  %52 = load i32, ptr %25, align 4
  %53 = call ptr (ptr, i32, ptr, i32, i32, ptr, ptr, ...) @proto_tree_add_bytes_format_value(ptr noundef %45, i32 noundef %46, ptr noundef %47, i32 noundef %48, i32 noundef 16, ptr noundef null, ptr noundef @.str.1130, i32 noundef %49, i32 noundef %50, i32 noundef %51, i32 noundef %52)
  store ptr %53, ptr %27, align 8
  %54 = load ptr, ptr %22, align 8
  %55 = load i32, ptr %23, align 4
  %56 = load i32, ptr %24, align 4
  %57 = load i32, ptr %26, align 4
  %58 = load i32, ptr %25, align 4
  call void (ptr, ptr, ...) @proto_item_append_text(ptr noundef %54, ptr noundef @.str.1130, i32 noundef %55, i32 noundef %56, i32 noundef %57, i32 noundef %58)
  %59 = load ptr, ptr %27, align 8
  %60 = load i32, ptr @ett_rtps_generic_guid, align 4
  %61 = call ptr @proto_item_add_subtree(ptr noundef %59, i32 noundef %60)
  store ptr %61, ptr %28, align 8
  %62 = load ptr, ptr %28, align 8
  %63 = load i32, ptr %16, align 4
  %64 = load ptr, ptr %13, align 8
  %65 = load i32, ptr %14, align 4
  %66 = call ptr @proto_tree_add_item(ptr noundef %62, i32 noundef %63, ptr noundef %64, i32 noundef %65, i32 noundef 4, i32 noundef 0)
  %67 = load ptr, ptr %28, align 8
  %68 = load i32, ptr %17, align 4
  %69 = load ptr, ptr %13, align 8
  %70 = load i32, ptr %14, align 4
  %71 = add i32 %70, 4
  %72 = call ptr @proto_tree_add_item(ptr noundef %67, i32 noundef %68, ptr noundef %69, i32 noundef %71, i32 noundef 4, i32 noundef 0)
  %73 = load ptr, ptr %28, align 8
  %74 = load i32, ptr %18, align 4
  %75 = load ptr, ptr %13, align 8
  %76 = load i32, ptr %14, align 4
  %77 = add i32 %76, 8
  %78 = call ptr @proto_tree_add_item(ptr noundef %73, i32 noundef %74, ptr noundef %75, i32 noundef %77, i32 noundef 4, i32 noundef 0)
  %79 = load ptr, ptr %28, align 8
  %80 = load i32, ptr %19, align 4
  %81 = load ptr, ptr %13, align 8
  %82 = load i32, ptr %14, align 4
  %83 = add i32 %82, 12
  %84 = call ptr @proto_tree_add_item(ptr noundef %79, i32 noundef %80, ptr noundef %81, i32 noundef %83, i32 noundef 4, i32 noundef 0)
  store ptr %84, ptr %27, align 8
  %85 = load ptr, ptr %27, align 8
  %86 = load i32, ptr @ett_rtps_entity, align 4
  %87 = call ptr @proto_item_add_subtree(ptr noundef %85, i32 noundef %86)
  store ptr %87, ptr %29, align 8
  %88 = load ptr, ptr %29, align 8
  %89 = load i32, ptr %20, align 4
  %90 = load ptr, ptr %13, align 8
  %91 = load i32, ptr %14, align 4
  %92 = add i32 %91, 12
  %93 = call ptr @proto_tree_add_item(ptr noundef %88, i32 noundef %89, ptr noundef %90, i32 noundef %92, i32 noundef 3, i32 noundef 0)
  %94 = load ptr, ptr %29, align 8
  %95 = load i32, ptr %21, align 4
  %96 = load ptr, ptr %13, align 8
  %97 = load i32, ptr %14, align 4
  %98 = add i32 %97, 15
  %99 = call ptr @proto_tree_add_item(ptr noundef %94, i32 noundef %95, ptr noundef %96, i32 noundef %98, i32 noundef 1, i32 noundef 0)
  call void @llvm.lifetime.end.p0(i64 8, ptr %29) #14
  call void @llvm.lifetime.end.p0(i64 8, ptr %28) #14
  call void @llvm.lifetime.end.p0(i64 8, ptr %27) #14
  call void @llvm.lifetime.end.p0(i64 4, ptr %26) #14
  call void @llvm.lifetime.end.p0(i64 4, ptr %25) #14
  call void @llvm.lifetime.end.p0(i64 4, ptr %24) #14
  call void @llvm.lifetime.end.p0(i64 4, ptr %23) #14
  ret void
}