; Function Attrs: null_pointer_is_valid sspstrong uwtable
define internal fastcc void @rtps_util_add_generic_guid_v2(ptr noundef %0, ptr noundef %1, i32 noundef %2, i32 noundef %3, i32 noundef %4, i32 noundef %5, i32 noundef %6, i32 noundef %7, i32 noundef %8, i32 noundef %9, ptr noundef %10) unnamed_addr #0 {
  %12 = tail call i32 @tvb_get_ntohl(ptr noundef %1, i32 noundef %2)
  %13 = add i32 %2, 4
  %14 = tail call i32 @tvb_get_ntohl(ptr noundef %1, i32 noundef %13)
  %15 = add i32 %2, 8
  %16 = tail call i32 @tvb_get_ntohl(ptr noundef %1, i32 noundef %15)
  %17 = add i32 %2, 12
  %18 = tail call i32 @tvb_get_ntohl(ptr noundef %1, i32 noundef %17)
  %19 = tail call ptr (ptr, i32, ptr, i32, i32, ptr, ptr, ...) @proto_tree_add_bytes_format_value(ptr noundef %0, i32 noundef %3, ptr noundef %1, i32 noundef %2, i32 noundef 16, ptr noundef null, ptr noundef nonnull @.str.1130, i32 noundef %12, i32 noundef %14, i32 noundef %16, i32 noundef %18)
  tail call void (ptr, ptr, ...) @proto_item_append_text(ptr noundef %10, ptr noundef nonnull @.str.1130, i32 noundef %12, i32 noundef %14, i32 noundef %16, i32 noundef %18)
  %20 = load i32, ptr @ett_rtps_generic_guid, align 4
  %21 = tail call ptr @proto_item_add_subtree(ptr noundef %19, i32 noundef %20)
  %22 = tail call ptr @proto_tree_add_item(ptr noundef %21, i32 noundef %4, ptr noundef %1, i32 noundef %2, i32 noundef 4, i32 noundef 0)
  %23 = tail call ptr @proto_tree_add_item(ptr noundef %21, i32 noundef %5, ptr noundef %1, i32 noundef %13, i32 noundef 4, i32 noundef 0)
  %24 = tail call ptr @proto_tree_add_item(ptr noundef %21, i32 noundef %6, ptr noundef %1, i32 noundef %15, i32 noundef 4, i32 noundef 0)
  %25 = tail call ptr @proto_tree_add_item(ptr noundef %21, i32 noundef %7, ptr noundef %1, i32 noundef %17, i32 noundef 4, i32 noundef 0)
  %26 = load i32, ptr @ett_rtps_entity, align 4
  %27 = tail call ptr @proto_item_add_subtree(ptr noundef %25, i32 noundef %26)
  %28 = tail call ptr @proto_tree_add_item(ptr noundef %27, i32 noundef %8, ptr noundef %1, i32 noundef %17, i32 noundef 3, i32 noundef 0)
  %29 = add i32 %2, 15
  %30 = tail call ptr @proto_tree_add_item(ptr noundef %27, i32 noundef %9, ptr noundef %1, i32 noundef %29, i32 noundef 1, i32 noundef 0)
  ret void
}